; Function Attrs: cold mustprogress nofree noreturn nounwind uwtable
define void @_ZN8nanobind6detail4failEPKcz(ptr noundef readonly captures(none) %0, ...) local_unnamed_addr #6 {
  %2 = alloca [1 x %struct.__va_list_tag], align 16
  call void @llvm.lifetime.start.p0(i64 24, ptr nonnull %2) #27
  %3 = load ptr, ptr @stderr, align 8
  %4 = tail call i64 @fwrite(ptr nonnull @.str, i64 25, i64 1, ptr %3) #30
  call void @llvm.va_start.p0(ptr nonnull %2)
  %5 = load ptr, ptr @stderr, align 8
  %6 = call i32 @vfprintf(ptr noundef %5, ptr noundef %0, ptr noundef nonnull %2) #31
  call void @llvm.va_end.p0(ptr nonnull %2)
  %7 = load ptr, ptr @stderr, align 8
  %fputc = call i32 @fputc(i32 10, ptr %7)
  call void @abort() #29
  unreachable
}